target datalayout = "e-m:e-p270:32:32-p271:32:32-p272:64:64-i64:64-i128:128-f80:128-n8:16:32:64-S128"
target triple = "x86_64-pc-linux-gnu"

%struct.node_info_msg = type { i64, i32, ptr }

@scontrol_load_nodes.last_show_flags = internal global i32 65535, align 4
@old_node_info_ptr = external global ptr, align 8
@quiet_flag = external global i32, align 4
@.str.3 = private unnamed_addr constant [35 x i8] c"slurm_load_node no change in data\0A\00", align 1

; Function Attrs: nounwind uwtable
define dso_local i32 @scontrol_load_nodes(ptr noundef %0, i16 noundef zeroext %1) #0 {
  %3 = alloca ptr, align 8
  %4 = alloca i16, align 2
  %5 = alloca i32, align 4
  %6 = alloca ptr, align 8
  store ptr %0, ptr %3, align 8
  store i16 %1, ptr %4, align 2
  call void @llvm.lifetime.start.p0(i64 4, ptr %5) #7
  call void @llvm.lifetime.start.p0(i64 8, ptr %6) #7
  store ptr null, ptr %6, align 8
  %7 = load i16, ptr %4, align 2
  %8 = zext i16 %7 to i64
  %9 = or i64 %8, 8
  %10 = trunc i64 %9 to i16
  store i16 %10, ptr %4, align 2
  %11 = load ptr, ptr @old_node_info_ptr, align 8
  %12 = icmp ne ptr %11, null
  br i1 %12, label %13, label %44

13:                                               ; preds = %2
  %14 = load i32, ptr @scontrol_load_nodes.last_show_flags, align 4
  %15 = load i16, ptr %4, align 2
  %16 = zext i16 %15 to i32
  %17 = icmp ne i32 %14, %16
  br i1 %17, label %18, label %21

18:                                               ; preds = %13
  %19 = load ptr, ptr @old_node_info_ptr, align 8
  %20 = getelementptr inbounds nuw %struct.node_info_msg, ptr %19, i32 0, i32 0
  store i64 0, ptr %20, align 8
  br label %21

21:                                               ; preds = %18, %13
  %22 = load ptr, ptr @old_node_info_ptr, align 8
  %23 = getelementptr inbounds nuw %struct.node_info_msg, ptr %22, i32 0, i32 0
  %24 = load i64, ptr %23, align 8
  %25 = load i16, ptr %4, align 2
  %26 = call i32 @slurm_load_node(i64 noundef %24, ptr noundef %6, i16 noundef zeroext %25)
  store i32 %26, ptr %5, align 4
  %27 = load i32, ptr %5, align 4
  %28 = icmp eq i32 %27, 0
  br i1 %28, label %29, label %31

29:                                               ; preds = %21
  %30 = load ptr, ptr @old_node_info_ptr, align 8
  call void @slurm_free_node_info_msg(ptr noundef %30)
  br label %43

31:                                               ; preds = %21
  %32 = call ptr @__errno_location() #8
  %33 = load i32, ptr %32, align 4
  %34 = icmp eq i32 %33, 1900
  br i1 %34, label %35, label %42

35:                                               ; preds = %31
  %36 = load ptr, ptr @old_node_info_ptr, align 8
  store ptr %36, ptr %6, align 8
  store i32 0, ptr %5, align 4
  %37 = load i32, ptr @quiet_flag, align 4
  %38 = icmp eq i32 %37, -1
  br i1 %38, label %39, label %41

39:                                               ; preds = %35
  %40 = call i32 (ptr, ...) @printf(ptr noundef @.str.3)
  br label %41

41:                                               ; preds = %39, %35
  br label %42

42:                                               ; preds = %41, %31
  br label %43

43:                                               ; preds = %42, %29
  br label %47

44:                                               ; preds = %2
  %45 = load i16, ptr %4, align 2
  %46 = call i32 @slurm_load_node(i64 noundef 0, ptr noundef %6, i16 noundef zeroext %45)
  store i32 %46, ptr %5, align 4
  br label %47

47:                                               ; preds = %44, %43
  %48 = load i32, ptr %5, align 4
  %49 = icmp eq i32 %48, 0
  br i1 %49, label %50, label %56

50:                                               ; preds = %47
  %51 = load ptr, ptr %6, align 8
  store ptr %51, ptr @old_node_info_ptr, align 8
  %52 = load i16, ptr %4, align 2
  %53 = zext i16 %52 to i32
  store i32 %53, ptr @scontrol_load_nodes.last_show_flags, align 4
  %54 = load ptr, ptr %6, align 8
  %55 = load ptr, ptr %3, align 8
  store ptr %54, ptr %55, align 8
  br label %56

56:                                               ; preds = %50, %47
  %57 = load i32, ptr %5, align 4
  call void @llvm.lifetime.end.p0(i64 8, ptr %6) #7
  call void @llvm.lifetime.end.p0(i64 4, ptr %5) #7
  ret i32 %57
}