; Function Attrs: nounwind uwtable
define dso_local i32 @scontrol_load_nodes(ptr noundef writeonly captures(none) %0, i16 noundef zeroext %1) local_unnamed_addr #0 {
  %3 = alloca ptr, align 8
  call void @llvm.lifetime.start.p0(i64 8, ptr nonnull %3) #9
  store ptr null, ptr %3, align 8
  %4 = or i16 %1, 8
  %5 = load ptr, ptr @old_node_info_ptr, align 8
  %.not = icmp eq ptr %5, null
  br i1 %.not, label %26, label %6

6:                                                ; preds = %2
  %7 = load i32, ptr @scontrol_load_nodes.last_show_flags, align 4
  %8 = zext i16 %4 to i32
  %.not10 = icmp eq i32 %7, %8
  br i1 %.not10, label %10, label %9

9:                                                ; preds = %6
  store i64 0, ptr %5, align 8
  %.pre = load ptr, ptr @old_node_info_ptr, align 8
  br label %10

10:                                               ; preds = %9, %6
  %11 = phi ptr [ %.pre, %9 ], [ %5, %6 ]
  %12 = load i64, ptr %11, align 8
  %13 = call i32 @slurm_load_node(i64 noundef %12, ptr noundef nonnull %3, i16 noundef zeroext %4) #9
  %14 = icmp eq i32 %13, 0
  br i1 %14, label %15, label %17

15:                                               ; preds = %10
  %16 = load ptr, ptr @old_node_info_ptr, align 8
  call void @slurm_free_node_info_msg(ptr noundef %16) #9
  br label %.thread

17:                                               ; preds = %10
  %18 = tail call ptr @__errno_location() #10
  %19 = load i32, ptr %18, align 4
  %20 = icmp eq i32 %19, 1900
  br i1 %20, label %21, label %.thread14

21:                                               ; preds = %17
  %22 = load ptr, ptr @old_node_info_ptr, align 8
  store ptr %22, ptr %3, align 8
  %23 = load i32, ptr @quiet_flag, align 4
  %24 = icmp eq i32 %23, -1
  br i1 %24, label %25, label %.thread

25:                                               ; preds = %21
  %puts = call i32 @puts(ptr nonnull dereferenceable(1) @str)
  br label %.thread

26:                                               ; preds = %2
  %27 = call i32 @slurm_load_node(i64 noundef 0, ptr noundef nonnull %3, i16 noundef zeroext %4) #9
  %28 = icmp eq i32 %27, 0
  br i1 %28, label %..thread_crit_edge, label %.thread14

..thread_crit_edge:                               ; preds = %26
  %.pre16 = zext i16 %4 to i32
  br label %.thread

.thread:                                          ; preds = %..thread_crit_edge, %21, %25, %15
  %.pre-phi = phi i32 [ %.pre16, %..thread_crit_edge ], [ %8, %21 ], [ %8, %25 ], [ %8, %15 ]
  %29 = load ptr, ptr %3, align 8
  store ptr %29, ptr @old_node_info_ptr, align 8
  store i32 %.pre-phi, ptr @scontrol_load_nodes.last_show_flags, align 4
  store ptr %29, ptr %0, align 8
  br label %.thread14

.thread14:                                        ; preds = %17, %.thread, %26
  %.012 = phi i32 [ 0, %.thread ], [ %27, %26 ], [ %13, %17 ]
  call void @llvm.lifetime.end.p0(i64 8, ptr nonnull %3) #9
  ret i32 %.012
}